target datalayout = "e-m:e-p270:32:32-p271:32:32-p272:64:64-i64:64-i128:128-f80:128-n8:16:32:64-S128"
target triple = "x86_64-pc-linux-gnu"

%struct.CVodeMemRec = type { ptr, double, ptr, ptr, i32, i32, double, double, ptr, i32, i32, ptr, ptr, i32, [13 x ptr], ptr, ptr, ptr, ptr, ptr, ptr, ptr, ptr, ptr, i32, i32, double, i32, i32, i32, i32, i32, double, double, double, double, double, double, double, double, [14 x double], [6 x double], [13 x double], double, double, double, double, double, double, double, i32, double, i32, i64, i32, i32, i32, double, double, double, double, double, double, double, double, double, double, double, double, i64, i32, i64, i64, i64, i64, i64, i64, i64, i32, double, double, double, i64, i64, i64, i64, ptr, i32, ptr, i32, ptr, ptr, ptr, ptr, ptr, i64, double, i32, i64, double, double, double, i32, double, i32, i32, i32, i32, i32, ptr, i64, i32, [6 x [4 x double]], i32, i64, ptr, i32, ptr, ptr, double, double, double, ptr, ptr, ptr, double, double, i32, i32, i64, ptr, i32, ptr, i32, i32, [13 x double], [13 x double], [13 x ptr], i32 }

; Function Attrs: nounwind uwtable
define internal void @cvFreeVectors(ptr noundef %0) #0 {
  %2 = alloca ptr, align 8
  %3 = alloca i32, align 4
  %4 = alloca i32, align 4
  store ptr %0, ptr %2, align 8, !tbaa !10
  call void @llvm.lifetime.start.p0(i64 4, ptr %3) #10
  call void @llvm.lifetime.start.p0(i64 4, ptr %4) #10
  %5 = load ptr, ptr %2, align 8, !tbaa !10
  %6 = getelementptr inbounds nuw %struct.CVodeMemRec, ptr %5, i32 0, i32 104
  %7 = load i32, ptr %6, align 8, !tbaa !72
  store i32 %7, ptr %4, align 4, !tbaa !3
  %8 = load ptr, ptr %2, align 8, !tbaa !10
  %9 = getelementptr inbounds nuw %struct.CVodeMemRec, ptr %8, i32 0, i32 15
  %10 = load ptr, ptr %9, align 8, !tbaa !141
  call void @N_VDestroy(ptr noundef %10)
  %11 = load ptr, ptr %2, align 8, !tbaa !10
  %12 = getelementptr inbounds nuw %struct.CVodeMemRec, ptr %11, i32 0, i32 17
  %13 = load ptr, ptr %12, align 8, !tbaa !142
  call void @N_VDestroy(ptr noundef %13)
  %14 = load ptr, ptr %2, align 8, !tbaa !10
  %15 = getelementptr inbounds nuw %struct.CVodeMemRec, ptr %14, i32 0, i32 18
  %16 = load ptr, ptr %15, align 8, !tbaa !143
  call void @N_VDestroy(ptr noundef %16)
  %17 = load ptr, ptr %2, align 8, !tbaa !10
  %18 = getelementptr inbounds nuw %struct.CVodeMemRec, ptr %17, i32 0, i32 19
  %19 = load ptr, ptr %18, align 8, !tbaa !144
  call void @N_VDestroy(ptr noundef %19)
  %20 = load ptr, ptr %2, align 8, !tbaa !10
  %21 = getelementptr inbounds nuw %struct.CVodeMemRec, ptr %20, i32 0, i32 20
  %22 = load ptr, ptr %21, align 8, !tbaa !145
  call void @N_VDestroy(ptr noundef %22)
  %23 = load ptr, ptr %2, align 8, !tbaa !10
  %24 = getelementptr inbounds nuw %struct.CVodeMemRec, ptr %23, i32 0, i32 21
  %25 = load ptr, ptr %24, align 8, !tbaa !146
  call void @N_VDestroy(ptr noundef %25)
  %26 = load ptr, ptr %2, align 8, !tbaa !10
  %27 = getelementptr inbounds nuw %struct.CVodeMemRec, ptr %26, i32 0, i32 22
  %28 = load ptr, ptr %27, align 8, !tbaa !147
  call void @N_VDestroy(ptr noundef %28)
  store i32 0, ptr %3, align 4, !tbaa !3
  br label %29

29:                                               ; preds = %40, %1
  %30 = load i32, ptr %3, align 4, !tbaa !3
  %31 = load i32, ptr %4, align 4, !tbaa !3
  %32 = icmp sle i32 %30, %31
  br i1 %32, label %33, label %43

33:                                               ; preds = %29
  %34 = load ptr, ptr %2, align 8, !tbaa !10
  %35 = getelementptr inbounds nuw %struct.CVodeMemRec, ptr %34, i32 0, i32 14
  %36 = load i32, ptr %3, align 4, !tbaa !3
  %37 = sext i32 %36 to i64
  %38 = getelementptr inbounds [13 x ptr], ptr %35, i64 0, i64 %37
  %39 = load ptr, ptr %38, align 8, !tbaa !91
  call void @N_VDestroy(ptr noundef %39)
  br label %40

40:                                               ; preds = %33
  %41 = load i32, ptr %3, align 4, !tbaa !3
  %42 = add nsw i32 %41, 1
  store i32 %42, ptr %3, align 4, !tbaa !3
  br label %29

43:                                               ; preds = %29
  %44 = load i32, ptr %4, align 4, !tbaa !3
  %45 = add nsw i32 %44, 8
  %46 = sext i32 %45 to i64
  %47 = load ptr, ptr %2, align 8, !tbaa !10
  %48 = getelementptr inbounds nuw %struct.CVodeMemRec, ptr %47, i32 0, i32 82
  %49 = load i64, ptr %48, align 8, !tbaa !97
  %50 = mul nsw i64 %46, %49
  %51 = load ptr, ptr %2, align 8, !tbaa !10
  %52 = getelementptr inbounds nuw %struct.CVodeMemRec, ptr %51, i32 0, i32 84
  %53 = load i64, ptr %52, align 8, !tbaa !73
  %54 = sub nsw i64 %53, %50
  store i64 %54, ptr %52, align 8, !tbaa !73
  %55 = load i32, ptr %4, align 4, !tbaa !3
  %56 = add nsw i32 %55, 8
  %57 = sext i32 %56 to i64
  %58 = load ptr, ptr %2, align 8, !tbaa !10
  %59 = getelementptr inbounds nuw %struct.CVodeMemRec, ptr %58, i32 0, i32 83
  %60 = load i64, ptr %59, align 8, !tbaa !98
  %61 = mul nsw i64 %57, %60
  %62 = load ptr, ptr %2, align 8, !tbaa !10
  %63 = getelementptr inbounds nuw %struct.CVodeMemRec, ptr %62, i32 0, i32 85
  %64 = load i64, ptr %63, align 8, !tbaa !74
  %65 = sub nsw i64 %64, %61
  store i64 %65, ptr %63, align 8, !tbaa !74
  %66 = load ptr, ptr %2, align 8, !tbaa !10
  %67 = getelementptr inbounds nuw %struct.CVodeMemRec, ptr %66, i32 0, i32 106
  %68 = load i32, ptr %67, align 8, !tbaa !75
  %69 = icmp ne i32 %68, 0
  br i1 %69, label %70, label %88

70:                                               ; preds = %43
  %71 = load ptr, ptr %2, align 8, !tbaa !10
  %72 = getelementptr inbounds nuw %struct.CVodeMemRec, ptr %71, i32 0, i32 8
  %73 = load ptr, ptr %72, align 8, !tbaa !148
  call void @N_VDestroy(ptr noundef %73)
  %74 = load ptr, ptr %2, align 8, !tbaa !10
  %75 = getelementptr inbounds nuw %struct.CVodeMemRec, ptr %74, i32 0, i32 82
  %76 = load i64, ptr %75, align 8, !tbaa !97
  %77 = load ptr, ptr %2, align 8, !tbaa !10
  %78 = getelementptr inbounds nuw %struct.CVodeMemRec, ptr %77, i32 0, i32 84
  %79 = load i64, ptr %78, align 8, !tbaa !73
  %80 = sub nsw i64 %79, %76
  store i64 %80, ptr %78, align 8, !tbaa !73
  %81 = load ptr, ptr %2, align 8, !tbaa !10
  %82 = getelementptr inbounds nuw %struct.CVodeMemRec, ptr %81, i32 0, i32 83
  %83 = load i64, ptr %82, align 8, !tbaa !98
  %84 = load ptr, ptr %2, align 8, !tbaa !10
  %85 = getelementptr inbounds nuw %struct.CVodeMemRec, ptr %84, i32 0, i32 85
  %86 = load i64, ptr %85, align 8, !tbaa !74
  %87 = sub nsw i64 %86, %83
  store i64 %87, ptr %85, align 8, !tbaa !74
  br label %88

88:                                               ; preds = %70, %43
  %89 = load ptr, ptr %2, align 8, !tbaa !10
  %90 = getelementptr inbounds nuw %struct.CVodeMemRec, ptr %89, i32 0, i32 108
  %91 = load i32, ptr %90, align 8, !tbaa !77
  %92 = icmp ne i32 %91, 0
  br i1 %92, label %93, label %111

93:                                               ; preds = %88
  %94 = load ptr, ptr %2, align 8, !tbaa !10
  %95 = getelementptr inbounds nuw %struct.CVodeMemRec, ptr %94, i32 0, i32 23
  %96 = load ptr, ptr %95, align 8, !tbaa !58
  call void @N_VDestroy(ptr noundef %96)
  %97 = load ptr, ptr %2, align 8, !tbaa !10
  %98 = getelementptr inbounds nuw %struct.CVodeMemRec, ptr %97, i32 0, i32 82
  %99 = load i64, ptr %98, align 8, !tbaa !97
  %100 = load ptr, ptr %2, align 8, !tbaa !10
  %101 = getelementptr inbounds nuw %struct.CVodeMemRec, ptr %100, i32 0, i32 84
  %102 = load i64, ptr %101, align 8, !tbaa !73
  %103 = sub nsw i64 %102, %99
  store i64 %103, ptr %101, align 8, !tbaa !73
  %104 = load ptr, ptr %2, align 8, !tbaa !10
  %105 = getelementptr inbounds nuw %struct.CVodeMemRec, ptr %104, i32 0, i32 83
  %106 = load i64, ptr %105, align 8, !tbaa !98
  %107 = load ptr, ptr %2, align 8, !tbaa !10
  %108 = getelementptr inbounds nuw %struct.CVodeMemRec, ptr %107, i32 0, i32 85
  %109 = load i64, ptr %108, align 8, !tbaa !74
  %110 = sub nsw i64 %109, %106
  store i64 %110, ptr %108, align 8, !tbaa !74
  br label %111

111:                                              ; preds = %93, %88
  call void @llvm.lifetime.end.p0(i64 4, ptr %4) #10
  call void @llvm.lifetime.end.p0(i64 4, ptr %3) #10
  ret void
}