; Function Attrs: nounwind uwtable
define internal fastcc void @cvFreeVectors(ptr noundef nonnull captures(none) %0) unnamed_addr #0 {
  %2 = getelementptr inbounds nuw i8, ptr %0, i64 1120
  %3 = load i32, ptr %2, align 8, !tbaa !39
  %4 = getelementptr inbounds nuw i8, ptr %0, i64 200
  %5 = load ptr, ptr %4, align 8, !tbaa !72
  tail call void @N_VDestroy(ptr noundef %5) #13
  %6 = getelementptr inbounds nuw i8, ptr %0, i64 216
  %7 = load ptr, ptr %6, align 8, !tbaa !73
  tail call void @N_VDestroy(ptr noundef %7) #13
  %8 = getelementptr inbounds nuw i8, ptr %0, i64 224
  %9 = load ptr, ptr %8, align 8, !tbaa !74
  tail call void @N_VDestroy(ptr noundef %9) #13
  %10 = getelementptr inbounds nuw i8, ptr %0, i64 232
  %11 = load ptr, ptr %10, align 8, !tbaa !75
  tail call void @N_VDestroy(ptr noundef %11) #13
  %12 = getelementptr inbounds nuw i8, ptr %0, i64 240
  %13 = load ptr, ptr %12, align 8, !tbaa !76
  tail call void @N_VDestroy(ptr noundef %13) #13
  %14 = getelementptr inbounds nuw i8, ptr %0, i64 248
  %15 = load ptr, ptr %14, align 8, !tbaa !77
  tail call void @N_VDestroy(ptr noundef %15) #13
  %16 = getelementptr inbounds nuw i8, ptr %0, i64 256
  %17 = load ptr, ptr %16, align 8, !tbaa !78
  tail call void @N_VDestroy(ptr noundef %17) #13
  %.not33 = icmp slt i32 %3, 0
  br i1 %.not33, label %._crit_edge, label %.lr.ph

.lr.ph:                                           ; preds = %1
  %18 = getelementptr inbounds nuw i8, ptr %0, i64 96
  %19 = add nuw i32 %3, 1
  %wide.trip.count = zext i32 %19 to i64
  br label %20

20:                                               ; preds = %.lr.ph, %20
  %indvars.iv = phi i64 [ 0, %.lr.ph ], [ %indvars.iv.next, %20 ]
  %21 = getelementptr inbounds nuw [13 x ptr], ptr %18, i64 0, i64 %indvars.iv
  %22 = load ptr, ptr %21, align 8, !tbaa !79
  tail call void @N_VDestroy(ptr noundef %22) #13
  %indvars.iv.next = add nuw nsw i64 %indvars.iv, 1
  %exitcond.not = icmp eq i64 %indvars.iv.next, %wide.trip.count
  br i1 %exitcond.not, label %._crit_edge, label %20

._crit_edge:                                      ; preds = %20, %1
  %23 = add nsw i32 %3, 8
  %24 = sext i32 %23 to i64
  %25 = getelementptr inbounds nuw i8, ptr %0, i64 944
  %26 = load i64, ptr %25, align 8, !tbaa !70
  %27 = mul nsw i64 %26, %24
  %28 = getelementptr inbounds nuw i8, ptr %0, i64 960
  %29 = load i64, ptr %28, align 8, !tbaa !40
  %30 = sub nsw i64 %29, %27
  store i64 %30, ptr %28, align 8, !tbaa !40
  %31 = getelementptr inbounds nuw i8, ptr %0, i64 952
  %32 = load i64, ptr %31, align 8, !tbaa !71
  %33 = mul nsw i64 %32, %24
  %34 = getelementptr inbounds nuw i8, ptr %0, i64 968
  %35 = load i64, ptr %34, align 8, !tbaa !41
  %36 = sub nsw i64 %35, %33
  store i64 %36, ptr %34, align 8, !tbaa !41
  %37 = getelementptr inbounds nuw i8, ptr %0, i64 1128
  %38 = load i32, ptr %37, align 8, !tbaa !98
  %.not31 = icmp eq i32 %38, 0
  br i1 %.not31, label %48, label %39

39:                                               ; preds = %._crit_edge
  %40 = getelementptr inbounds nuw i8, ptr %0, i64 56
  %41 = load ptr, ptr %40, align 8, !tbaa !99
  tail call void @N_VDestroy(ptr noundef %41) #13
  %42 = load i64, ptr %25, align 8, !tbaa !70
  %43 = load i64, ptr %28, align 8, !tbaa !40
  %44 = sub nsw i64 %43, %42
  store i64 %44, ptr %28, align 8, !tbaa !40
  %45 = load i64, ptr %31, align 8, !tbaa !71
  %46 = load i64, ptr %34, align 8, !tbaa !41
  %47 = sub nsw i64 %46, %45
  store i64 %47, ptr %34, align 8, !tbaa !41
  br label %48

48:                                               ; preds = %39, %._crit_edge
  %49 = getelementptr inbounds nuw i8, ptr %0, i64 1136
  %50 = load i32, ptr %49, align 8, !tbaa !100
  %.not32 = icmp eq i32 %50, 0
  br i1 %.not32, label %60, label %51

51:                                               ; preds = %48
  %52 = getelementptr inbounds nuw i8, ptr %0, i64 264
  %53 = load ptr, ptr %52, align 8, !tbaa !101
  tail call void @N_VDestroy(ptr noundef %53) #13
  %54 = load i64, ptr %25, align 8, !tbaa !70
  %55 = load i64, ptr %28, align 8, !tbaa !40
  %56 = sub nsw i64 %55, %54
  store i64 %56, ptr %28, align 8, !tbaa !40
  %57 = load i64, ptr %31, align 8, !tbaa !71
  %58 = load i64, ptr %34, align 8, !tbaa !41
  %59 = sub nsw i64 %58, %57
  store i64 %59, ptr %34, align 8, !tbaa !41
  br label %60

60:                                               ; preds = %51, %48
  ret void
}